; Function Attrs: nounwind uwtable
define dso_local i64 @hashTypeLength(ptr noundef readonly captures(none) %0, i32 noundef %1) local_unnamed_addr #1 {
  %3 = alloca %struct.lpFingArgs, align 8
  %4 = load i32, ptr %0, align 8
  %5 = lshr i32 %4, 4
  %6 = and i32 %5, 15
  switch i32 %6, label %61 [
    i32 11, label %7
    i32 12, label %12
    i32 2, label %40
  ]

7:                                                ; preds = %2
  %8 = getelementptr inbounds nuw i8, ptr %0, i64 8
  %9 = load ptr, ptr %8, align 8, !tbaa !10
  %10 = tail call i64 @lpLength(ptr noundef %9) #16
  %11 = lshr i64 %10, 1
  br label %62

12:                                               ; preds = %2
  %13 = getelementptr inbounds nuw i8, ptr %0, i64 8
  %14 = load ptr, ptr %13, align 8, !tbaa !10
  %15 = getelementptr inbounds nuw i8, ptr %14, i64 24
  %16 = load ptr, ptr %15, align 8, !tbaa !15
  %17 = tail call i64 @lpLength(ptr noundef %16) #16
  %18 = udiv i64 %17, 3
  %.not23 = icmp eq i32 %1, 0
  br i1 %.not23, label %62, label %19

19:                                               ; preds = %12
  %20 = getelementptr inbounds nuw i8, ptr %14, i64 6
  %21 = load i16, ptr %20, align 2
  %22 = and i16 %21, 256
  %23 = icmp eq i16 %22, 0
  br i1 %23, label %24, label %62

24:                                               ; preds = %19
  %25 = load i32, ptr %0, align 8
  %26 = and i32 %25, 240
  %27 = icmp eq i32 %26, 192
  br i1 %27, label %listpackExExpireDryRun.exit, label %28, !prof !14

28:                                               ; preds = %24
  tail call void @_serverAssert(ptr noundef nonnull @.str.1, ptr noundef nonnull @.str.2, i32 noundef 353) #16
  tail call void @abort() #17
  unreachable

listpackExExpireDryRun.exit:                      ; preds = %24
  %29 = load ptr, ptr %13, align 8, !tbaa !10
  call void @llvm.lifetime.start.p0(i64 40, ptr nonnull %3) #16
  store i64 -1, ptr %3, align 8, !tbaa !75
  %30 = getelementptr inbounds nuw i8, ptr %3, i64 8
  %31 = tail call i64 @commandTimeSnapshot() #16
  store i64 %31, ptr %30, align 8, !tbaa !77
  %32 = getelementptr inbounds nuw i8, ptr %3, i64 16
  %33 = getelementptr inbounds nuw i8, ptr %3, i64 24
  %34 = getelementptr inbounds nuw i8, ptr %29, i64 24
  call void @llvm.memset.p0.i64(ptr noundef nonnull align 8 dereferenceable(24) %32, i8 0, i64 24, i1 false)
  %35 = load ptr, ptr %34, align 8, !tbaa !15
  %36 = call ptr @lpFindCb(ptr noundef %35, ptr noundef null, ptr noundef nonnull %3, ptr noundef nonnull @cbFindInListpack, i32 noundef 0) #16
  %37 = load i32, ptr %33, align 8, !tbaa !103
  %38 = sext i32 %37 to i64
  call void @llvm.lifetime.end.p0(i64 40, ptr nonnull %3) #16
  %39 = sub nsw i64 %18, %38
  br label %62

40:                                               ; preds = %2
  %41 = getelementptr inbounds nuw i8, ptr %0, i64 8
  %42 = load ptr, ptr %41, align 8, !tbaa !10
  %.not = icmp eq i32 %1, 0
  br i1 %.not, label %54, label %43

43:                                               ; preds = %40
  %.val = load ptr, ptr %42, align 8, !tbaa !56
  %.not24 = icmp eq ptr %.val, @mstrHashDictTypeWithHFE
  br i1 %.not24, label %44, label %54

44:                                               ; preds = %43
  %45 = getelementptr inbounds nuw i8, ptr %42, i64 62
  %46 = load i16, ptr %45, align 2
  %47 = and i16 %46, 256
  %48 = icmp eq i16 %47, 0
  br i1 %48, label %49, label %54

49:                                               ; preds = %44
  %50 = getelementptr inbounds nuw i8, ptr %42, i64 72
  %51 = load ptr, ptr %50, align 8, !tbaa !58
  %52 = tail call i64 @commandTimeSnapshot() #16
  %53 = tail call i64 @ebExpireDryRun(ptr noundef %51, ptr noundef nonnull @hashFieldExpireBucketsType, i64 noundef %52) #16
  br label %54

54:                                               ; preds = %44, %49, %43, %40
  %.019 = phi i64 [ 0, %43 ], [ 0, %40 ], [ %53, %49 ], [ 0, %44 ]
  %55 = getelementptr inbounds nuw i8, ptr %42, i64 24
  %56 = load i64, ptr %55, align 8, !tbaa !28
  %57 = getelementptr inbounds nuw i8, ptr %42, i64 32
  %58 = load i64, ptr %57, align 8, !tbaa !28
  %59 = sub i64 %56, %.019
  %60 = add i64 %59, %58
  br label %62

61:                                               ; preds = %2
  tail call void (ptr, i32, ptr, ...) @_serverPanic(ptr noundef nonnull @.str.2, i32 noundef 1325, ptr noundef nonnull @.str.11) #16
  tail call void @abort() #17
  unreachable

62:                                               ; preds = %12, %19, %listpackExExpireDryRun.exit, %54, %7
  %.0 = phi i64 [ %11, %7 ], [ %60, %54 ], [ %39, %listpackExExpireDryRun.exit ], [ %18, %19 ], [ %18, %12 ]
  ret i64 %.0
}